target datalayout = "e-m:e-p270:32:32-p271:32:32-p272:64:64-i64:64-i128:128-f80:128-n8:16:32:64-S128"
target triple = "x86_64-pc-linux-gnu"

%struct.prov_des_ctx_st = type { %struct.prov_cipher_ctx_st, %union.anon.0, %union.anon.2 }
%struct.prov_cipher_ctx_st = type { [16 x i8], [16 x i8], [16 x i8], ptr, %union.anon, i32, i64, i64, i64, i64, i32, i8, i32, ptr, i32, i64, i32, i64, i32, ptr, ptr, ptr }
%union.anon = type { ptr }
%union.anon.0 = type { double, [120 x i8] }
%union.anon.2 = type { ptr }

; Function Attrs: nounwind uwtable
define internal i32 @cipher_hw_des_cfb8_cipher(ptr noundef %0, ptr noundef %1, ptr noundef %2, i64 noundef %3) #0 {
  %5 = alloca ptr, align 8
  %6 = alloca ptr, align 8
  %7 = alloca ptr, align 8
  %8 = alloca i64, align 8
  %9 = alloca ptr, align 8
  store ptr %0, ptr %5, align 8, !tbaa !3
  store ptr %1, ptr %6, align 8, !tbaa !8
  store ptr %2, ptr %7, align 8, !tbaa !8
  store i64 %3, ptr %8, align 8, !tbaa !10
  call void @llvm.lifetime.start.p0(i64 8, ptr %9) #5
  %10 = load ptr, ptr %5, align 8, !tbaa !3
  %11 = getelementptr inbounds nuw %struct.prov_des_ctx_st, ptr %10, i32 0, i32 1
  store ptr %11, ptr %9, align 8, !tbaa !14
  br label %12

12:                                               ; preds = %15, %4
  %13 = load i64, ptr %8, align 8, !tbaa !10
  %14 = icmp uge i64 %13, 1073741824
  br i1 %14, label %15, label %34

15:                                               ; preds = %12
  %16 = load ptr, ptr %7, align 8, !tbaa !8
  %17 = load ptr, ptr %6, align 8, !tbaa !8
  %18 = load ptr, ptr %9, align 8, !tbaa !14
  %19 = load ptr, ptr %5, align 8, !tbaa !3
  %20 = getelementptr inbounds nuw %struct.prov_cipher_ctx_st, ptr %19, i32 0, i32 2
  %21 = getelementptr inbounds [16 x i8], ptr %20, i64 0, i64 0
  %22 = load ptr, ptr %5, align 8, !tbaa !3
  %23 = getelementptr inbounds nuw %struct.prov_cipher_ctx_st, ptr %22, i32 0, i32 11
  %24 = load i8, ptr %23, align 4
  %25 = lshr i8 %24, 1
  %26 = and i8 %25, 1
  %27 = zext i8 %26 to i32
  call void @DES_cfb_encrypt(ptr noundef %16, ptr noundef %17, i32 noundef 8, i64 noundef 1073741824, ptr noundef %18, ptr noundef %21, i32 noundef %27)
  %28 = load i64, ptr %8, align 8, !tbaa !10
  %29 = sub i64 %28, 1073741824
  store i64 %29, ptr %8, align 8, !tbaa !10
  %30 = load ptr, ptr %7, align 8, !tbaa !8
  %31 = getelementptr inbounds nuw i8, ptr %30, i64 1073741824
  store ptr %31, ptr %7, align 8, !tbaa !8
  %32 = load ptr, ptr %6, align 8, !tbaa !8
  %33 = getelementptr inbounds nuw i8, ptr %32, i64 1073741824
  store ptr %33, ptr %6, align 8, !tbaa !8
  br label %12, !llvm.loop !36

34:                                               ; preds = %12
  %35 = load i64, ptr %8, align 8, !tbaa !10
  %36 = icmp ugt i64 %35, 0
  br i1 %36, label %37, label %51

37:                                               ; preds = %34
  %38 = load ptr, ptr %7, align 8, !tbaa !8
  %39 = load ptr, ptr %6, align 8, !tbaa !8
  %40 = load i64, ptr %8, align 8, !tbaa !10
  %41 = load ptr, ptr %9, align 8, !tbaa !14
  %42 = load ptr, ptr %5, align 8, !tbaa !3
  %43 = getelementptr inbounds nuw %struct.prov_cipher_ctx_st, ptr %42, i32 0, i32 2
  %44 = getelementptr inbounds [16 x i8], ptr %43, i64 0, i64 0
  %45 = load ptr, ptr %5, align 8, !tbaa !3
  %46 = getelementptr inbounds nuw %struct.prov_cipher_ctx_st, ptr %45, i32 0, i32 11
  %47 = load i8, ptr %46, align 4
  %48 = lshr i8 %47, 1
  %49 = and i8 %48, 1
  %50 = zext i8 %49 to i32
  call void @DES_cfb_encrypt(ptr noundef %38, ptr noundef %39, i32 noundef 8, i64 noundef %40, ptr noundef %41, ptr noundef %44, i32 noundef %50)
  br label %51

51:                                               ; preds = %37, %34
  call void @llvm.lifetime.end.p0(i64 8, ptr %9) #5
  ret i32 1
}